target datalayout = "e-m:e-p270:32:32-p271:32:32-p272:64:64-i64:64-i128:128-f80:128-n8:16:32:64-S128"
target triple = "x86_64-pc-linux-gnu"

%struct.avifCodecConfigurationBox = type { i8, i8, i8, i8, i8, i8, i8, i8, i8 }

; Function Attrs: nounwind uwtable
define internal i32 @writeCodecConfig(ptr noundef %0, ptr noundef %1) #0 {
  %3 = alloca i32, align 4
  %4 = alloca ptr, align 8
  %5 = alloca ptr, align 8
  %6 = alloca i32, align 4
  %7 = alloca i32, align 4
  %8 = alloca i32, align 4
  %9 = alloca i32, align 4
  %10 = alloca i32, align 4
  %11 = alloca i32, align 4
  %12 = alloca i32, align 4
  %13 = alloca i32, align 4
  %14 = alloca i32, align 4
  %15 = alloca i32, align 4
  %16 = alloca i32, align 4
  %17 = alloca i32, align 4
  %18 = alloca i32, align 4
  %19 = alloca i32, align 4
  store ptr %0, ptr %4, align 8
  store ptr %1, ptr %5, align 8
  br label %20

20:                                               ; preds = %2
  %21 = load ptr, ptr %4, align 8
  %22 = call i32 @avifRWStreamWriteBits(ptr noundef %21, i32 noundef 1, i64 noundef 1)
  store i32 %22, ptr %6, align 4
  %23 = load i32, ptr %6, align 4
  %24 = icmp ne i32 %23, 0
  br i1 %24, label %25, label %27

25:                                               ; preds = %20
  %26 = load i32, ptr %6, align 4
  store i32 %26, ptr %3, align 4
  br label %182

27:                                               ; preds = %20
  br label %28

28:                                               ; preds = %27
  br label %29

29:                                               ; preds = %28
  %30 = load ptr, ptr %4, align 8
  %31 = call i32 @avifRWStreamWriteBits(ptr noundef %30, i32 noundef 1, i64 noundef 7)
  store i32 %31, ptr %7, align 4
  %32 = load i32, ptr %7, align 4
  %33 = icmp ne i32 %32, 0
  br i1 %33, label %34, label %36

34:                                               ; preds = %29
  %35 = load i32, ptr %7, align 4
  store i32 %35, ptr %3, align 4
  br label %182

36:                                               ; preds = %29
  br label %37

37:                                               ; preds = %36
  br label %38

38:                                               ; preds = %37
  %39 = load ptr, ptr %4, align 8
  %40 = load ptr, ptr %5, align 8
  %41 = getelementptr inbounds nuw %struct.avifCodecConfigurationBox, ptr %40, i32 0, i32 0
  %42 = load i8, ptr %41, align 1
  %43 = zext i8 %42 to i32
  %44 = call i32 @avifRWStreamWriteBits(ptr noundef %39, i32 noundef %43, i64 noundef 3)
  store i32 %44, ptr %8, align 4
  %45 = load i32, ptr %8, align 4
  %46 = icmp ne i32 %45, 0
  br i1 %46, label %47, label %49

47:                                               ; preds = %38
  %48 = load i32, ptr %8, align 4
  store i32 %48, ptr %3, align 4
  br label %182

49:                                               ; preds = %38
  br label %50

50:                                               ; preds = %49
  br label %51

51:                                               ; preds = %50
  %52 = load ptr, ptr %4, align 8
  %53 = load ptr, ptr %5, align 8
  %54 = getelementptr inbounds nuw %struct.avifCodecConfigurationBox, ptr %53, i32 0, i32 1
  %55 = load i8, ptr %54, align 1
  %56 = zext i8 %55 to i32
  %57 = call i32 @avifRWStreamWriteBits(ptr noundef %52, i32 noundef %56, i64 noundef 5)
  store i32 %57, ptr %9, align 4
  %58 = load i32, ptr %9, align 4
  %59 = icmp ne i32 %58, 0
  br i1 %59, label %60, label %62

60:                                               ; preds = %51
  %61 = load i32, ptr %9, align 4
  store i32 %61, ptr %3, align 4
  br label %182

62:                                               ; preds = %51
  br label %63

63:                                               ; preds = %62
  br label %64

64:                                               ; preds = %63
  %65 = load ptr, ptr %4, align 8
  %66 = load ptr, ptr %5, align 8
  %67 = getelementptr inbounds nuw %struct.avifCodecConfigurationBox, ptr %66, i32 0, i32 2
  %68 = load i8, ptr %67, align 1
  %69 = zext i8 %68 to i32
  %70 = call i32 @avifRWStreamWriteBits(ptr noundef %65, i32 noundef %69, i64 noundef 1)
  store i32 %70, ptr %10, align 4
  %71 = load i32, ptr %10, align 4
  %72 = icmp ne i32 %71, 0
  br i1 %72, label %73, label %75

73:                                               ; preds = %64
  %74 = load i32, ptr %10, align 4
  store i32 %74, ptr %3, align 4
  br label %182

75:                                               ; preds = %64
  br label %76

76:                                               ; preds = %75
  br label %77

77:                                               ; preds = %76
  %78 = load ptr, ptr %4, align 8
  %79 = load ptr, ptr %5, align 8
  %80 = getelementptr inbounds nuw %struct.avifCodecConfigurationBox, ptr %79, i32 0, i32 3
  %81 = load i8, ptr %80, align 1
  %82 = zext i8 %81 to i32
  %83 = call i32 @avifRWStreamWriteBits(ptr noundef %78, i32 noundef %82, i64 noundef 1)
  store i32 %83, ptr %11, align 4
  %84 = load i32, ptr %11, align 4
  %85 = icmp ne i32 %84, 0
  br i1 %85, label %86, label %88

86:                                               ; preds = %77
  %87 = load i32, ptr %11, align 4
  store i32 %87, ptr %3, align 4
  br label %182

88:                                               ; preds = %77
  br label %89

89:                                               ; preds = %88
  br label %90

90:                                               ; preds = %89
  %91 = load ptr, ptr %4, align 8
  %92 = load ptr, ptr %5, align 8
  %93 = getelementptr inbounds nuw %struct.avifCodecConfigurationBox, ptr %92, i32 0, i32 4
  %94 = load i8, ptr %93, align 1
  %95 = zext i8 %94 to i32
  %96 = call i32 @avifRWStreamWriteBits(ptr noundef %91, i32 noundef %95, i64 noundef 1)
  store i32 %96, ptr %12, align 4
  %97 = load i32, ptr %12, align 4
  %98 = icmp ne i32 %97, 0
  br i1 %98, label %99, label %101

99:                                               ; preds = %90
  %100 = load i32, ptr %12, align 4
  store i32 %100, ptr %3, align 4
  br label %182

101:                                              ; preds = %90
  br label %102

102:                                              ; preds = %101
  br label %103

103:                                              ; preds = %102
  %104 = load ptr, ptr %4, align 8
  %105 = load ptr, ptr %5, align 8
  %106 = getelementptr inbounds nuw %struct.avifCodecConfigurationBox, ptr %105, i32 0, i32 5
  %107 = load i8, ptr %106, align 1
  %108 = zext i8 %107 to i32
  %109 = call i32 @avifRWStreamWriteBits(ptr noundef %104, i32 noundef %108, i64 noundef 1)
  store i32 %109, ptr %13, align 4
  %110 = load i32, ptr %13, align 4
  %111 = icmp ne i32 %110, 0
  br i1 %111, label %112, label %114

112:                                              ; preds = %103
  %113 = load i32, ptr %13, align 4
  store i32 %113, ptr %3, align 4
  br label %182

114:                                              ; preds = %103
  br label %115

115:                                              ; preds = %114
  br label %116

116:                                              ; preds = %115
  %117 = load ptr, ptr %4, align 8
  %118 = load ptr, ptr %5, align 8
  %119 = getelementptr inbounds nuw %struct.avifCodecConfigurationBox, ptr %118, i32 0, i32 6
  %120 = load i8, ptr %119, align 1
  %121 = zext i8 %120 to i32
  %122 = call i32 @avifRWStreamWriteBits(ptr noundef %117, i32 noundef %121, i64 noundef 1)
  store i32 %122, ptr %14, align 4
  %123 = load i32, ptr %14, align 4
  %124 = icmp ne i32 %123, 0
  br i1 %124, label %125, label %127

125:                                              ; preds = %116
  %126 = load i32, ptr %14, align 4
  store i32 %126, ptr %3, align 4
  br label %182

127:                                              ; preds = %116
  br label %128

128:                                              ; preds = %127
  br label %129

129:                                              ; preds = %128
  %130 = load ptr, ptr %4, align 8
  %131 = load ptr, ptr %5, align 8
  %132 = getelementptr inbounds nuw %struct.avifCodecConfigurationBox, ptr %131, i32 0, i32 7
  %133 = load i8, ptr %132, align 1
  %134 = zext i8 %133 to i32
  %135 = call i32 @avifRWStreamWriteBits(ptr noundef %130, i32 noundef %134, i64 noundef 1)
  store i32 %135, ptr %15, align 4
  %136 = load i32, ptr %15, align 4
  %137 = icmp ne i32 %136, 0
  br i1 %137, label %138, label %140

138:                                              ; preds = %129
  %139 = load i32, ptr %15, align 4
  store i32 %139, ptr %3, align 4
  br label %182

140:                                              ; preds = %129
  br label %141

141:                                              ; preds = %140
  br label %142

142:                                              ; preds = %141
  %143 = load ptr, ptr %4, align 8
  %144 = load ptr, ptr %5, align 8
  %145 = getelementptr inbounds nuw %struct.avifCodecConfigurationBox, ptr %144, i32 0, i32 8
  %146 = load i8, ptr %145, align 1
  %147 = zext i8 %146 to i32
  %148 = call i32 @avifRWStreamWriteBits(ptr noundef %143, i32 noundef %147, i64 noundef 2)
  store i32 %148, ptr %16, align 4
  %149 = load i32, ptr %16, align 4
  %150 = icmp ne i32 %149, 0
  br i1 %150, label %151, label %153

151:                                              ; preds = %142
  %152 = load i32, ptr %16, align 4
  store i32 %152, ptr %3, align 4
  br label %182

153:                                              ; preds = %142
  br label %154

154:                                              ; preds = %153
  br label %155

155:                                              ; preds = %154
  %156 = load ptr, ptr %4, align 8
  %157 = call i32 @avifRWStreamWriteBits(ptr noundef %156, i32 noundef 0, i64 noundef 3)
  store i32 %157, ptr %17, align 4
  %158 = load i32, ptr %17, align 4
  %159 = icmp ne i32 %158, 0
  br i1 %159, label %160, label %162

160:                                              ; preds = %155
  %161 = load i32, ptr %17, align 4
  store i32 %161, ptr %3, align 4
  br label %182

162:                                              ; preds = %155
  br label %163

163:                                              ; preds = %162
  br label %164

164:                                              ; preds = %163
  %165 = load ptr, ptr %4, align 8
  %166 = call i32 @avifRWStreamWriteBits(ptr noundef %165, i32 noundef 0, i64 noundef 1)
  store i32 %166, ptr %18, align 4
  %167 = load i32, ptr %18, align 4
  %168 = icmp ne i32 %167, 0
  br i1 %168, label %169, label %171

169:                                              ; preds = %164
  %170 = load i32, ptr %18, align 4
  store i32 %170, ptr %3, align 4
  br label %182

171:                                              ; preds = %164
  br label %172

172:                                              ; preds = %171
  br label %173

173:                                              ; preds = %172
  %174 = load ptr, ptr %4, align 8
  %175 = call i32 @avifRWStreamWriteBits(ptr noundef %174, i32 noundef 0, i64 noundef 4)
  store i32 %175, ptr %19, align 4
  %176 = load i32, ptr %19, align 4
  %177 = icmp ne i32 %176, 0
  br i1 %177, label %178, label %180

178:                                              ; preds = %173
  %179 = load i32, ptr %19, align 4
  store i32 %179, ptr %3, align 4
  br label %182

180:                                              ; preds = %173
  br label %181

181:                                              ; preds = %180
  store i32 0, ptr %3, align 4
  br label %182

182:                                              ; preds = %181, %178, %169, %160, %151, %138, %125, %112, %99, %86, %73, %60, %47, %34, %25
  %183 = load i32, ptr %3, align 4
  ret i32 %183
}

; Function Attrs: nounwind uwtable
define internal i32 @writeConfigBox(ptr noundef %0, ptr noundef %1, ptr noundef %2) #0 {
  %4 = alloca i32, align 4
  %5 = alloca ptr, align 8
  %6 = alloca ptr, align 8
  %7 = alloca ptr, align 8
  %8 = alloca i64, align 8
  %9 = alloca i32, align 4
  %10 = alloca i32, align 4
  store ptr %0, ptr %5, align 8
  store ptr %1, ptr %6, align 8
  store ptr %2, ptr %7, align 8
  br label %11

11:                                               ; preds = %3
  %12 = load ptr, ptr %5, align 8
  %13 = load ptr, ptr %7, align 8
  %14 = call i32 @avifRWStreamWriteBox(ptr noundef %12, ptr noundef %13, i64 noundef 0, ptr noundef %8)
  store i32 %14, ptr %9, align 4
  %15 = load i32, ptr %9, align 4
  %16 = icmp ne i32 %15, 0
  br i1 %16, label %17, label %19

17:                                               ; preds = %11
  %18 = load i32, ptr %9, align 4
  store i32 %18, ptr %4, align 4
  br label %33

19:                                               ; preds = %11
  br label %20

20:                                               ; preds = %19
  br label %21

21:                                               ; preds = %20
  %22 = load ptr, ptr %5, align 8
  %23 = load ptr, ptr %6, align 8
  %24 = call i32 @writeCodecConfig(ptr noundef %22, ptr noundef %23)
  store i32 %24, ptr %10, align 4
  %25 = load i32, ptr %10, align 4
  %26 = icmp ne i32 %25, 0
  br i1 %26, label %27, label %29

27:                                               ; preds = %21
  %28 = load i32, ptr %10, align 4
  store i32 %28, ptr %4, align 4
  br label %33

29:                                               ; preds = %21
  br label %30

30:                                               ; preds = %29
  %31 = load ptr, ptr %5, align 8
  %32 = load i64, ptr %8, align 8
  call void @avifRWStreamFinishBox(ptr noundef %31, i64 noundef %32)
  store i32 0, ptr %4, align 4
  br label %33

33:                                               ; preds = %30, %27, %17
  %34 = load i32, ptr %4, align 4
  ret i32 %34
}