; Function Attrs: nounwind uwtable
define internal fastcc i32 @writeConfigBox(ptr noundef %0, ptr nocapture noundef readonly %1, ptr noundef %2) unnamed_addr #1 {
  %4 = alloca i64, align 8
  %5 = call i32 @avifRWStreamWriteBox(ptr noundef %0, ptr noundef %2, i64 noundef 0, ptr noundef nonnull %4) #13
  %.not = icmp eq i32 %5, 0
  br i1 %.not, label %6, label %writeCodecConfig.exit.thread

6:                                                ; preds = %3
  %7 = call i32 @avifRWStreamWriteBits(ptr noundef %0, i32 noundef 1, i64 noundef 1) #13
  %.not.i = icmp eq i32 %7, 0
  br i1 %.not.i, label %8, label %writeCodecConfig.exit.thread

8:                                                ; preds = %6
  %9 = call i32 @avifRWStreamWriteBits(ptr noundef %0, i32 noundef 1, i64 noundef 7) #13
  %.not65.i = icmp eq i32 %9, 0
  br i1 %.not65.i, label %10, label %writeCodecConfig.exit.thread

10:                                               ; preds = %8
  %11 = load i8, ptr %1, align 1
  %12 = zext i8 %11 to i32
  %13 = call i32 @avifRWStreamWriteBits(ptr noundef %0, i32 noundef %12, i64 noundef 3) #13
  %.not66.i = icmp eq i32 %13, 0
  br i1 %.not66.i, label %14, label %writeCodecConfig.exit.thread

14:                                               ; preds = %10
  %15 = getelementptr inbounds nuw i8, ptr %1, i64 1
  %16 = load i8, ptr %15, align 1
  %17 = zext i8 %16 to i32
  %18 = call i32 @avifRWStreamWriteBits(ptr noundef %0, i32 noundef %17, i64 noundef 5) #13
  %.not67.i = icmp eq i32 %18, 0
  br i1 %.not67.i, label %19, label %writeCodecConfig.exit.thread

19:                                               ; preds = %14
  %20 = getelementptr inbounds nuw i8, ptr %1, i64 2
  %21 = load i8, ptr %20, align 1
  %22 = zext i8 %21 to i32
  %23 = call i32 @avifRWStreamWriteBits(ptr noundef %0, i32 noundef %22, i64 noundef 1) #13
  %.not68.i = icmp eq i32 %23, 0
  br i1 %.not68.i, label %24, label %writeCodecConfig.exit.thread

24:                                               ; preds = %19
  %25 = getelementptr inbounds nuw i8, ptr %1, i64 3
  %26 = load i8, ptr %25, align 1
  %27 = zext i8 %26 to i32
  %28 = call i32 @avifRWStreamWriteBits(ptr noundef %0, i32 noundef %27, i64 noundef 1) #13
  %.not69.i = icmp eq i32 %28, 0
  br i1 %.not69.i, label %29, label %writeCodecConfig.exit.thread

29:                                               ; preds = %24
  %30 = getelementptr inbounds nuw i8, ptr %1, i64 4
  %31 = load i8, ptr %30, align 1
  %32 = zext i8 %31 to i32
  %33 = call i32 @avifRWStreamWriteBits(ptr noundef %0, i32 noundef %32, i64 noundef 1) #13
  %.not70.i = icmp eq i32 %33, 0
  br i1 %.not70.i, label %34, label %writeCodecConfig.exit.thread

34:                                               ; preds = %29
  %35 = getelementptr inbounds nuw i8, ptr %1, i64 5
  %36 = load i8, ptr %35, align 1
  %37 = zext i8 %36 to i32
  %38 = call i32 @avifRWStreamWriteBits(ptr noundef %0, i32 noundef %37, i64 noundef 1) #13
  %.not71.i = icmp eq i32 %38, 0
  br i1 %.not71.i, label %39, label %writeCodecConfig.exit.thread

39:                                               ; preds = %34
  %40 = getelementptr inbounds nuw i8, ptr %1, i64 6
  %41 = load i8, ptr %40, align 1
  %42 = zext i8 %41 to i32
  %43 = call i32 @avifRWStreamWriteBits(ptr noundef %0, i32 noundef %42, i64 noundef 1) #13
  %.not72.i = icmp eq i32 %43, 0
  br i1 %.not72.i, label %44, label %writeCodecConfig.exit.thread

44:                                               ; preds = %39
  %45 = getelementptr inbounds nuw i8, ptr %1, i64 7
  %46 = load i8, ptr %45, align 1
  %47 = zext i8 %46 to i32
  %48 = call i32 @avifRWStreamWriteBits(ptr noundef %0, i32 noundef %47, i64 noundef 1) #13
  %.not73.i = icmp eq i32 %48, 0
  br i1 %.not73.i, label %49, label %writeCodecConfig.exit.thread

49:                                               ; preds = %44
  %50 = getelementptr inbounds nuw i8, ptr %1, i64 8
  %51 = load i8, ptr %50, align 1
  %52 = zext i8 %51 to i32
  %53 = call i32 @avifRWStreamWriteBits(ptr noundef %0, i32 noundef %52, i64 noundef 2) #13
  %.not74.i = icmp eq i32 %53, 0
  br i1 %.not74.i, label %54, label %writeCodecConfig.exit.thread

54:                                               ; preds = %49
  %55 = call i32 @avifRWStreamWriteBits(ptr noundef %0, i32 noundef 0, i64 noundef 3) #13
  %.not75.i = icmp eq i32 %55, 0
  br i1 %.not75.i, label %56, label %writeCodecConfig.exit.thread

56:                                               ; preds = %54
  %57 = call i32 @avifRWStreamWriteBits(ptr noundef %0, i32 noundef 0, i64 noundef 1) #13
  %.not76.i = icmp eq i32 %57, 0
  br i1 %.not76.i, label %writeCodecConfig.exit, label %writeCodecConfig.exit.thread

writeCodecConfig.exit:                            ; preds = %56
  %58 = call i32 @avifRWStreamWriteBits(ptr noundef %0, i32 noundef 0, i64 noundef 4) #13
  %.not11 = icmp eq i32 %58, 0
  br i1 %.not11, label %59, label %writeCodecConfig.exit.thread

59:                                               ; preds = %writeCodecConfig.exit
  %60 = load i64, ptr %4, align 8
  call void @avifRWStreamFinishBox(ptr noundef %0, i64 noundef %60) #13
  br label %writeCodecConfig.exit.thread

writeCodecConfig.exit.thread:                     ; preds = %56, %54, %49, %44, %39, %34, %29, %24, %19, %14, %10, %8, %6, %writeCodecConfig.exit, %3, %59
  %.0 = phi i32 [ 0, %59 ], [ %5, %3 ], [ %58, %writeCodecConfig.exit ], [ %57, %56 ], [ %55, %54 ], [ %53, %49 ], [ %48, %44 ], [ %43, %39 ], [ %38, %34 ], [ %33, %29 ], [ %28, %24 ], [ %23, %19 ], [ %18, %14 ], [ %13, %10 ], [ %9, %8 ], [ %7, %6 ]
  ret i32 %.0
}